target datalayout = "e-m:e-p270:32:32-p271:32:32-p272:64:64-i64:64-i128:128-f80:128-n8:16:32:64-S128"
target triple = "x86_64-pc-linux-gnu"

%union.pthread_rwlock_t = type { %struct.__pthread_rwlock_arch_t }
%struct.__pthread_rwlock_arch_t = type { i32, i32, i32, i32, i32, i32, i32, i32, i8, [7 x i8], i64, i32 }
%struct.slurmctld_lock_t = type { i32, i32, i32, i32, i32 }

@slurmctld_locks = internal global [5 x %union.pthread_rwlock_t] zeroinitializer, align 16
@.str = private unnamed_addr constant [32 x i8] c"%s: pthread_rwlock_rdlock(): %m\00", align 1
@__func__.lock_slurmctld = private unnamed_addr constant [15 x i8] c"lock_slurmctld\00", align 1
@.str.1 = private unnamed_addr constant [32 x i8] c"%s: pthread_rwlock_wrlock(): %m\00", align 1

; Function Attrs: nounwind uwtable
define dso_local void @lock_slurmctld(ptr noundef byval(%struct.slurmctld_lock_t) align 8 %0) #0 {
  %2 = alloca i32, align 4
  %3 = alloca i32, align 4
  %4 = alloca i32, align 4
  %5 = alloca i32, align 4
  %6 = alloca i32, align 4
  %7 = alloca i32, align 4
  %8 = alloca i32, align 4
  %9 = alloca i32, align 4
  %10 = alloca i32, align 4
  %11 = alloca i32, align 4
  %12 = getelementptr inbounds nuw %struct.slurmctld_lock_t, ptr %0, i32 0, i32 0
  %13 = load i32, ptr %12, align 8
  %14 = icmp eq i32 %13, 1
  br i1 %14, label %15, label %25

15:                                               ; preds = %1
  br label %16

16:                                               ; preds = %15
  call void @llvm.lifetime.start.p0(i64 4, ptr %2) #7
  %17 = call i32 @pthread_rwlock_rdlock(ptr noundef @slurmctld_locks) #7
  store i32 %17, ptr %2, align 4
  %18 = load i32, ptr %2, align 4
  %19 = icmp ne i32 %18, 0
  br i1 %19, label %20, label %23

20:                                               ; preds = %16
  %21 = load i32, ptr %2, align 4
  %22 = call ptr @__errno_location() #8
  store i32 %21, ptr %22, align 4
  call void (ptr, ...) @fatal_abort(ptr noundef @.str, ptr noundef @__func__.lock_slurmctld) #9
  unreachable

23:                                               ; preds = %16
  call void @llvm.lifetime.end.p0(i64 4, ptr %2) #7
  br label %24

24:                                               ; preds = %23
  br label %40

25:                                               ; preds = %1
  %26 = getelementptr inbounds nuw %struct.slurmctld_lock_t, ptr %0, i32 0, i32 0
  %27 = load i32, ptr %26, align 8
  %28 = icmp eq i32 %27, 2
  br i1 %28, label %29, label %39

29:                                               ; preds = %25
  br label %30

30:                                               ; preds = %29
  call void @llvm.lifetime.start.p0(i64 4, ptr %3) #7
  %31 = call i32 @pthread_rwlock_wrlock(ptr noundef @slurmctld_locks) #7
  store i32 %31, ptr %3, align 4
  %32 = load i32, ptr %3, align 4
  %33 = icmp ne i32 %32, 0
  br i1 %33, label %34, label %37

34:                                               ; preds = %30
  %35 = load i32, ptr %3, align 4
  %36 = call ptr @__errno_location() #8
  store i32 %35, ptr %36, align 4
  call void (ptr, ...) @fatal_abort(ptr noundef @.str.1, ptr noundef @__func__.lock_slurmctld) #9
  unreachable

37:                                               ; preds = %30
  call void @llvm.lifetime.end.p0(i64 4, ptr %3) #7
  br label %38

38:                                               ; preds = %37
  br label %39

39:                                               ; preds = %38, %25
  br label %40

40:                                               ; preds = %39, %24
  %41 = getelementptr inbounds nuw %struct.slurmctld_lock_t, ptr %0, i32 0, i32 1
  %42 = load i32, ptr %41, align 4
  %43 = icmp eq i32 %42, 1
  br i1 %43, label %44, label %54

44:                                               ; preds = %40
  br label %45

45:                                               ; preds = %44
  call void @llvm.lifetime.start.p0(i64 4, ptr %4) #7
  %46 = call i32 @pthread_rwlock_rdlock(ptr noundef getelementptr inbounds ([5 x %union.pthread_rwlock_t], ptr @slurmctld_locks, i64 0, i64 1)) #7
  store i32 %46, ptr %4, align 4
  %47 = load i32, ptr %4, align 4
  %48 = icmp ne i32 %47, 0
  br i1 %48, label %49, label %52

49:                                               ; preds = %45
  %50 = load i32, ptr %4, align 4
  %51 = call ptr @__errno_location() #8
  store i32 %50, ptr %51, align 4
  call void (ptr, ...) @fatal_abort(ptr noundef @.str, ptr noundef @__func__.lock_slurmctld) #9
  unreachable

52:                                               ; preds = %45
  call void @llvm.lifetime.end.p0(i64 4, ptr %4) #7
  br label %53

53:                                               ; preds = %52
  br label %69

54:                                               ; preds = %40
  %55 = getelementptr inbounds nuw %struct.slurmctld_lock_t, ptr %0, i32 0, i32 1
  %56 = load i32, ptr %55, align 4
  %57 = icmp eq i32 %56, 2
  br i1 %57, label %58, label %68

58:                                               ; preds = %54
  br label %59

59:                                               ; preds = %58
  call void @llvm.lifetime.start.p0(i64 4, ptr %5) #7
  %60 = call i32 @pthread_rwlock_wrlock(ptr noundef getelementptr inbounds ([5 x %union.pthread_rwlock_t], ptr @slurmctld_locks, i64 0, i64 1)) #7
  store i32 %60, ptr %5, align 4
  %61 = load i32, ptr %5, align 4
  %62 = icmp ne i32 %61, 0
  br i1 %62, label %63, label %66

63:                                               ; preds = %59
  %64 = load i32, ptr %5, align 4
  %65 = call ptr @__errno_location() #8
  store i32 %64, ptr %65, align 4
  call void (ptr, ...) @fatal_abort(ptr noundef @.str.1, ptr noundef @__func__.lock_slurmctld) #9
  unreachable

66:                                               ; preds = %59
  call void @llvm.lifetime.end.p0(i64 4, ptr %5) #7
  br label %67

67:                                               ; preds = %66
  br label %68

68:                                               ; preds = %67, %54
  br label %69

69:                                               ; preds = %68, %53
  %70 = getelementptr inbounds nuw %struct.slurmctld_lock_t, ptr %0, i32 0, i32 2
  %71 = load i32, ptr %70, align 8
  %72 = icmp eq i32 %71, 1
  br i1 %72, label %73, label %83

73:                                               ; preds = %69
  br label %74

74:                                               ; preds = %73
  call void @llvm.lifetime.start.p0(i64 4, ptr %6) #7
  %75 = call i32 @pthread_rwlock_rdlock(ptr noundef getelementptr inbounds ([5 x %union.pthread_rwlock_t], ptr @slurmctld_locks, i64 0, i64 2)) #7
  store i32 %75, ptr %6, align 4
  %76 = load i32, ptr %6, align 4
  %77 = icmp ne i32 %76, 0
  br i1 %77, label %78, label %81

78:                                               ; preds = %74
  %79 = load i32, ptr %6, align 4
  %80 = call ptr @__errno_location() #8
  store i32 %79, ptr %80, align 4
  call void (ptr, ...) @fatal_abort(ptr noundef @.str, ptr noundef @__func__.lock_slurmctld) #9
  unreachable

81:                                               ; preds = %74
  call void @llvm.lifetime.end.p0(i64 4, ptr %6) #7
  br label %82

82:                                               ; preds = %81
  br label %98

83:                                               ; preds = %69
  %84 = getelementptr inbounds nuw %struct.slurmctld_lock_t, ptr %0, i32 0, i32 2
  %85 = load i32, ptr %84, align 8
  %86 = icmp eq i32 %85, 2
  br i1 %86, label %87, label %97

87:                                               ; preds = %83
  br label %88

88:                                               ; preds = %87
  call void @llvm.lifetime.start.p0(i64 4, ptr %7) #7
  %89 = call i32 @pthread_rwlock_wrlock(ptr noundef getelementptr inbounds ([5 x %union.pthread_rwlock_t], ptr @slurmctld_locks, i64 0, i64 2)) #7
  store i32 %89, ptr %7, align 4
  %90 = load i32, ptr %7, align 4
  %91 = icmp ne i32 %90, 0
  br i1 %91, label %92, label %95

92:                                               ; preds = %88
  %93 = load i32, ptr %7, align 4
  %94 = call ptr @__errno_location() #8
  store i32 %93, ptr %94, align 4
  call void (ptr, ...) @fatal_abort(ptr noundef @.str.1, ptr noundef @__func__.lock_slurmctld) #9
  unreachable

95:                                               ; preds = %88
  call void @llvm.lifetime.end.p0(i64 4, ptr %7) #7
  br label %96

96:                                               ; preds = %95
  br label %97

97:                                               ; preds = %96, %83
  br label %98

98:                                               ; preds = %97, %82
  %99 = getelementptr inbounds nuw %struct.slurmctld_lock_t, ptr %0, i32 0, i32 3
  %100 = load i32, ptr %99, align 4
  %101 = icmp eq i32 %100, 1
  br i1 %101, label %102, label %112

102:                                              ; preds = %98
  br label %103

103:                                              ; preds = %102
  call void @llvm.lifetime.start.p0(i64 4, ptr %8) #7
  %104 = call i32 @pthread_rwlock_rdlock(ptr noundef getelementptr inbounds ([5 x %union.pthread_rwlock_t], ptr @slurmctld_locks, i64 0, i64 3)) #7
  store i32 %104, ptr %8, align 4
  %105 = load i32, ptr %8, align 4
  %106 = icmp ne i32 %105, 0
  br i1 %106, label %107, label %110

107:                                              ; preds = %103
  %108 = load i32, ptr %8, align 4
  %109 = call ptr @__errno_location() #8
  store i32 %108, ptr %109, align 4
  call void (ptr, ...) @fatal_abort(ptr noundef @.str, ptr noundef @__func__.lock_slurmctld) #9
  unreachable

110:                                              ; preds = %103
  call void @llvm.lifetime.end.p0(i64 4, ptr %8) #7
  br label %111

111:                                              ; preds = %110
  br label %127

112:                                              ; preds = %98
  %113 = getelementptr inbounds nuw %struct.slurmctld_lock_t, ptr %0, i32 0, i32 3
  %114 = load i32, ptr %113, align 4
  %115 = icmp eq i32 %114, 2
  br i1 %115, label %116, label %126

116:                                              ; preds = %112
  br label %117

117:                                              ; preds = %116
  call void @llvm.lifetime.start.p0(i64 4, ptr %9) #7
  %118 = call i32 @pthread_rwlock_wrlock(ptr noundef getelementptr inbounds ([5 x %union.pthread_rwlock_t], ptr @slurmctld_locks, i64 0, i64 3)) #7
  store i32 %118, ptr %9, align 4
  %119 = load i32, ptr %9, align 4
  %120 = icmp ne i32 %119, 0
  br i1 %120, label %121, label %124

121:                                              ; preds = %117
  %122 = load i32, ptr %9, align 4
  %123 = call ptr @__errno_location() #8
  store i32 %122, ptr %123, align 4
  call void (ptr, ...) @fatal_abort(ptr noundef @.str.1, ptr noundef @__func__.lock_slurmctld) #9
  unreachable

124:                                              ; preds = %117
  call void @llvm.lifetime.end.p0(i64 4, ptr %9) #7
  br label %125

125:                                              ; preds = %124
  br label %126

126:                                              ; preds = %125, %112
  br label %127

127:                                              ; preds = %126, %111
  %128 = getelementptr inbounds nuw %struct.slurmctld_lock_t, ptr %0, i32 0, i32 4
  %129 = load i32, ptr %128, align 8
  %130 = icmp eq i32 %129, 1
  br i1 %130, label %131, label %141

131:                                              ; preds = %127
  br label %132

132:                                              ; preds = %131
  call void @llvm.lifetime.start.p0(i64 4, ptr %10) #7
  %133 = call i32 @pthread_rwlock_rdlock(ptr noundef getelementptr inbounds ([5 x %union.pthread_rwlock_t], ptr @slurmctld_locks, i64 0, i64 4)) #7
  store i32 %133, ptr %10, align 4
  %134 = load i32, ptr %10, align 4
  %135 = icmp ne i32 %134, 0
  br i1 %135, label %136, label %139

136:                                              ; preds = %132
  %137 = load i32, ptr %10, align 4
  %138 = call ptr @__errno_location() #8
  store i32 %137, ptr %138, align 4
  call void (ptr, ...) @fatal_abort(ptr noundef @.str, ptr noundef @__func__.lock_slurmctld) #9
  unreachable

139:                                              ; preds = %132
  call void @llvm.lifetime.end.p0(i64 4, ptr %10) #7
  br label %140

140:                                              ; preds = %139
  br label %156

141:                                              ; preds = %127
  %142 = getelementptr inbounds nuw %struct.slurmctld_lock_t, ptr %0, i32 0, i32 4
  %143 = load i32, ptr %142, align 8
  %144 = icmp eq i32 %143, 2
  br i1 %144, label %145, label %155

145:                                              ; preds = %141
  br label %146

146:                                              ; preds = %145
  call void @llvm.lifetime.start.p0(i64 4, ptr %11) #7
  %147 = call i32 @pthread_rwlock_wrlock(ptr noundef getelementptr inbounds ([5 x %union.pthread_rwlock_t], ptr @slurmctld_locks, i64 0, i64 4)) #7
  store i32 %147, ptr %11, align 4
  %148 = load i32, ptr %11, align 4
  %149 = icmp ne i32 %148, 0
  br i1 %149, label %150, label %153

150:                                              ; preds = %146
  %151 = load i32, ptr %11, align 4
  %152 = call ptr @__errno_location() #8
  store i32 %151, ptr %152, align 4
  call void (ptr, ...) @fatal_abort(ptr noundef @.str.1, ptr noundef @__func__.lock_slurmctld) #9
  unreachable

153:                                              ; preds = %146
  call void @llvm.lifetime.end.p0(i64 4, ptr %11) #7
  br label %154

154:                                              ; preds = %153
  br label %155

155:                                              ; preds = %154, %141
  br label %156

156:                                              ; preds = %155, %140
  ret void
}