; Function Attrs: nounwind uwtable
define dso_local void @lock_slurmctld(ptr noundef readonly byval(%struct.slurmctld_lock_t) align 8 captures(none) %0) local_unnamed_addr #0 {
  %2 = load i32, ptr %0, align 8
  switch i32 %2, label %11 [
    i32 1, label %3
    i32 2, label %7
  ]

3:                                                ; preds = %1
  %4 = tail call i32 @pthread_rwlock_rdlock(ptr noundef nonnull @slurmctld_locks) #7
  %.not34 = icmp eq i32 %4, 0
  br i1 %.not34, label %11, label %5

5:                                                ; preds = %3
  %6 = tail call ptr @__errno_location() #8
  store i32 %4, ptr %6, align 4
  tail call void (ptr, ...) @fatal_abort(ptr noundef nonnull @.str, ptr noundef nonnull @__func__.lock_slurmctld) #9
  unreachable

7:                                                ; preds = %1
  %8 = tail call i32 @pthread_rwlock_wrlock(ptr noundef nonnull @slurmctld_locks) #7
  %.not = icmp eq i32 %8, 0
  br i1 %.not, label %11, label %9

9:                                                ; preds = %7
  %10 = tail call ptr @__errno_location() #8
  store i32 %8, ptr %10, align 4
  tail call void (ptr, ...) @fatal_abort(ptr noundef nonnull @.str.1, ptr noundef nonnull @__func__.lock_slurmctld) #9
  unreachable

11:                                               ; preds = %7, %1, %3
  %12 = getelementptr inbounds nuw i8, ptr %0, i64 4
  %13 = load i32, ptr %12, align 4
  switch i32 %13, label %22 [
    i32 1, label %14
    i32 2, label %18
  ]

14:                                               ; preds = %11
  %15 = tail call i32 @pthread_rwlock_rdlock(ptr noundef nonnull getelementptr inbounds nuw (i8, ptr @slurmctld_locks, i64 56)) #7
  %.not36 = icmp eq i32 %15, 0
  br i1 %.not36, label %22, label %16

16:                                               ; preds = %14
  %17 = tail call ptr @__errno_location() #8
  store i32 %15, ptr %17, align 4
  tail call void (ptr, ...) @fatal_abort(ptr noundef nonnull @.str, ptr noundef nonnull @__func__.lock_slurmctld) #9
  unreachable

18:                                               ; preds = %11
  %19 = tail call i32 @pthread_rwlock_wrlock(ptr noundef nonnull getelementptr inbounds nuw (i8, ptr @slurmctld_locks, i64 56)) #7
  %.not35 = icmp eq i32 %19, 0
  br i1 %.not35, label %22, label %20

20:                                               ; preds = %18
  %21 = tail call ptr @__errno_location() #8
  store i32 %19, ptr %21, align 4
  tail call void (ptr, ...) @fatal_abort(ptr noundef nonnull @.str.1, ptr noundef nonnull @__func__.lock_slurmctld) #9
  unreachable

22:                                               ; preds = %18, %11, %14
  %23 = getelementptr inbounds nuw i8, ptr %0, i64 8
  %24 = load i32, ptr %23, align 8
  switch i32 %24, label %33 [
    i32 1, label %25
    i32 2, label %29
  ]

25:                                               ; preds = %22
  %26 = tail call i32 @pthread_rwlock_rdlock(ptr noundef nonnull getelementptr inbounds nuw (i8, ptr @slurmctld_locks, i64 112)) #7
  %.not38 = icmp eq i32 %26, 0
  br i1 %.not38, label %33, label %27

27:                                               ; preds = %25
  %28 = tail call ptr @__errno_location() #8
  store i32 %26, ptr %28, align 4
  tail call void (ptr, ...) @fatal_abort(ptr noundef nonnull @.str, ptr noundef nonnull @__func__.lock_slurmctld) #9
  unreachable

29:                                               ; preds = %22
  %30 = tail call i32 @pthread_rwlock_wrlock(ptr noundef nonnull getelementptr inbounds nuw (i8, ptr @slurmctld_locks, i64 112)) #7
  %.not37 = icmp eq i32 %30, 0
  br i1 %.not37, label %33, label %31

31:                                               ; preds = %29
  %32 = tail call ptr @__errno_location() #8
  store i32 %30, ptr %32, align 4
  tail call void (ptr, ...) @fatal_abort(ptr noundef nonnull @.str.1, ptr noundef nonnull @__func__.lock_slurmctld) #9
  unreachable

33:                                               ; preds = %29, %22, %25
  %34 = getelementptr inbounds nuw i8, ptr %0, i64 12
  %35 = load i32, ptr %34, align 4
  switch i32 %35, label %44 [
    i32 1, label %36
    i32 2, label %40
  ]

36:                                               ; preds = %33
  %37 = tail call i32 @pthread_rwlock_rdlock(ptr noundef nonnull getelementptr inbounds nuw (i8, ptr @slurmctld_locks, i64 168)) #7
  %.not40 = icmp eq i32 %37, 0
  br i1 %.not40, label %44, label %38

38:                                               ; preds = %36
  %39 = tail call ptr @__errno_location() #8
  store i32 %37, ptr %39, align 4
  tail call void (ptr, ...) @fatal_abort(ptr noundef nonnull @.str, ptr noundef nonnull @__func__.lock_slurmctld) #9
  unreachable

40:                                               ; preds = %33
  %41 = tail call i32 @pthread_rwlock_wrlock(ptr noundef nonnull getelementptr inbounds nuw (i8, ptr @slurmctld_locks, i64 168)) #7
  %.not39 = icmp eq i32 %41, 0
  br i1 %.not39, label %44, label %42

42:                                               ; preds = %40
  %43 = tail call ptr @__errno_location() #8
  store i32 %41, ptr %43, align 4
  tail call void (ptr, ...) @fatal_abort(ptr noundef nonnull @.str.1, ptr noundef nonnull @__func__.lock_slurmctld) #9
  unreachable

44:                                               ; preds = %40, %33, %36
  %45 = getelementptr inbounds nuw i8, ptr %0, i64 16
  %46 = load i32, ptr %45, align 8
  switch i32 %46, label %55 [
    i32 1, label %47
    i32 2, label %51
  ]

47:                                               ; preds = %44
  %48 = tail call i32 @pthread_rwlock_rdlock(ptr noundef nonnull getelementptr inbounds nuw (i8, ptr @slurmctld_locks, i64 224)) #7
  %.not42 = icmp eq i32 %48, 0
  br i1 %.not42, label %55, label %49

49:                                               ; preds = %47
  %50 = tail call ptr @__errno_location() #8
  store i32 %48, ptr %50, align 4
  tail call void (ptr, ...) @fatal_abort(ptr noundef nonnull @.str, ptr noundef nonnull @__func__.lock_slurmctld) #9
  unreachable

51:                                               ; preds = %44
  %52 = tail call i32 @pthread_rwlock_wrlock(ptr noundef nonnull getelementptr inbounds nuw (i8, ptr @slurmctld_locks, i64 224)) #7
  %.not41 = icmp eq i32 %52, 0
  br i1 %.not41, label %55, label %53

53:                                               ; preds = %51
  %54 = tail call ptr @__errno_location() #8
  store i32 %52, ptr %54, align 4
  tail call void (ptr, ...) @fatal_abort(ptr noundef nonnull @.str.1, ptr noundef nonnull @__func__.lock_slurmctld) #9
  unreachable

55:                                               ; preds = %51, %44, %47
  ret void
}